; Function Attrs: mustprogress uwtable
define dso_local void @_ZN8V3PreLex11dumpSummaryEv(ptr nonnull readnone align 8 captures(none) %0) local_unnamed_addr #5 align 2 personality ptr @__gxx_personality_v0 {
  %2 = alloca %"class.std::__cxx11::basic_string", align 8
  %3 = tail call noundef nonnull align 8 dereferenceable(8) ptr @_ZSt16__ostream_insertIcSt11char_traitsIcEERSt13basic_ostreamIT_T0_ES6_PKS3_l(ptr noundef nonnull align 8 dereferenceable(8) @_ZSt4cout, ptr noundef nonnull @.str.51, i64 noundef 27)
  call void @llvm.lifetime.start.p0(i64 32, ptr nonnull %2) #44
  %4 = load ptr, ptr @_ZL15yy_buffer_stack, align 8, !tbaa !13
  %.not.i = icmp eq ptr %4, null
  br i1 %.not.i, label %_ZN8V3PreLex13currentBufferEv.exit, label %5

5:                                                ; preds = %1
  %6 = load i64, ptr @_ZL19yy_buffer_stack_top, align 8, !tbaa !16
  %7 = getelementptr inbounds nuw ptr, ptr %4, i64 %6
  %8 = load ptr, ptr %7, align 8, !tbaa !18
  br label %_ZN8V3PreLex13currentBufferEv.exit

_ZN8V3PreLex13currentBufferEv.exit:               ; preds = %1, %5
  %9 = phi ptr [ %8, %5 ], [ null, %1 ]
  call void @_Z8cvtToHexIP15yy_buffer_stateENSt9enable_ifIXsr3std10is_pointerIT_EE5valueENSt7__cxx1112basic_stringIcSt11char_traitsIcESaIcEEEE4typeES3_(ptr dead_on_unwind nonnull writable sret(%"class.std::__cxx11::basic_string") align 8 %2, ptr noundef %9)
  %10 = load ptr, ptr %2, align 8, !tbaa !114
  %11 = getelementptr inbounds nuw i8, ptr %2, i64 8
  %12 = load i64, ptr %11, align 8, !tbaa !115
  %13 = invoke noundef nonnull align 8 dereferenceable(8) ptr @_ZSt16__ostream_insertIcSt11char_traitsIcEERSt13basic_ostreamIT_T0_ES6_PKS3_l(ptr noundef nonnull align 8 dereferenceable(8) @_ZSt4cout, ptr noundef %10, i64 noundef %12)
          to label %_ZStlsIcSt11char_traitsIcESaIcEERSt13basic_ostreamIT_T0_ES7_RKNSt7__cxx1112basic_stringIS4_S5_T1_EE.exit unwind label %40

_ZStlsIcSt11char_traitsIcESaIcEERSt13basic_ostreamIT_T0_ES7_RKNSt7__cxx1112basic_stringIS4_S5_T1_EE.exit: ; preds = %_ZN8V3PreLex13currentBufferEv.exit
  %14 = load ptr, ptr %2, align 8, !tbaa !114
  %15 = getelementptr inbounds nuw i8, ptr %2, i64 16
  %16 = icmp eq ptr %14, %15
  br i1 %16, label %_ZNKSt7__cxx1112basic_stringIcSt11char_traitsIcESaIcEE11_M_is_localEv.exit.thread.i.i, label %_ZNKSt7__cxx1112basic_stringIcSt11char_traitsIcESaIcEE11_M_is_localEv.exit.i.i

_ZNKSt7__cxx1112basic_stringIcSt11char_traitsIcESaIcEE11_M_is_localEv.exit.thread.i.i: ; preds = %_ZStlsIcSt11char_traitsIcESaIcEERSt13basic_ostreamIT_T0_ES7_RKNSt7__cxx1112basic_stringIS4_S5_T1_EE.exit
  %17 = load i64, ptr %11, align 8, !tbaa !115
  %18 = icmp ult i64 %17, 16
  call void @llvm.assume(i1 %18)
  br label %_ZNSt7__cxx1112basic_stringIcSt11char_traitsIcESaIcEED2Ev.exit

_ZNKSt7__cxx1112basic_stringIcSt11char_traitsIcESaIcEE11_M_is_localEv.exit.i.i: ; preds = %_ZStlsIcSt11char_traitsIcESaIcEERSt13basic_ostreamIT_T0_ES7_RKNSt7__cxx1112basic_stringIS4_S5_T1_EE.exit
  %19 = load i64, ptr %15, align 8, !tbaa !27
  %20 = add i64 %19, 1
  call void @_ZdlPvm(ptr noundef %14, i64 noundef %20) #45
  br label %_ZNSt7__cxx1112basic_stringIcSt11char_traitsIcESaIcEED2Ev.exit

_ZNSt7__cxx1112basic_stringIcSt11char_traitsIcESaIcEED2Ev.exit: ; preds = %_ZNKSt7__cxx1112basic_stringIcSt11char_traitsIcESaIcEE11_M_is_localEv.exit.thread.i.i, %_ZNKSt7__cxx1112basic_stringIcSt11char_traitsIcESaIcEE11_M_is_localEv.exit.i.i
  call void @llvm.lifetime.end.p0(i64 32, ptr nonnull %2) #44
  %21 = load ptr, ptr @_ZSt4cout, align 8, !tbaa !708
  %22 = getelementptr i8, ptr %21, i64 -24
  %23 = load i64, ptr %22, align 8
  %24 = getelementptr inbounds i8, ptr @_ZSt4cout, i64 %23
  %25 = getelementptr inbounds nuw i8, ptr %24, i64 240
  %26 = load ptr, ptr %25, align 8, !tbaa !763
  %.not.i.i.i = icmp eq ptr %26, null
  br i1 %.not.i.i.i, label %27, label %_ZSt13__check_facetISt5ctypeIcEERKT_PS3_.exit.i.i

27:                                               ; preds = %_ZNSt7__cxx1112basic_stringIcSt11char_traitsIcESaIcEED2Ev.exit
  call void @_ZSt16__throw_bad_castv() #42
  unreachable

_ZSt13__check_facetISt5ctypeIcEERKT_PS3_.exit.i.i: ; preds = %_ZNSt7__cxx1112basic_stringIcSt11char_traitsIcESaIcEED2Ev.exit
  %28 = getelementptr inbounds nuw i8, ptr %26, i64 56
  %29 = load i8, ptr %28, align 8, !tbaa !770
  %.not.i1.i.i = icmp eq i8 %29, 0
  br i1 %.not.i1.i.i, label %33, label %30

30:                                               ; preds = %_ZSt13__check_facetISt5ctypeIcEERKT_PS3_.exit.i.i
  %31 = getelementptr inbounds nuw i8, ptr %26, i64 67
  %32 = load i8, ptr %31, align 1, !tbaa !27
  br label %_ZSt4endlIcSt11char_traitsIcEERSt13basic_ostreamIT_T0_ES6_.exit

33:                                               ; preds = %_ZSt13__check_facetISt5ctypeIcEERKT_PS3_.exit.i.i
  call void @_ZNKSt5ctypeIcE13_M_widen_initEv(ptr noundef nonnull align 8 dereferenceable(570) %26)
  %34 = load ptr, ptr %26, align 8, !tbaa !708
  %35 = getelementptr inbounds nuw i8, ptr %34, i64 48
  %36 = load ptr, ptr %35, align 8
  %37 = call noundef signext i8 %36(ptr noundef nonnull align 8 dereferenceable(570) %26, i8 noundef signext 10)
  br label %_ZSt4endlIcSt11char_traitsIcEERSt13basic_ostreamIT_T0_ES6_.exit

_ZSt4endlIcSt11char_traitsIcEERSt13basic_ostreamIT_T0_ES6_.exit: ; preds = %30, %33
  %.0.i.i.i = phi i8 [ %32, %30 ], [ %37, %33 ]
  %38 = call noundef nonnull align 8 dereferenceable(8) ptr @_ZNSo3putEc(ptr noundef nonnull align 8 dereferenceable(8) @_ZSt4cout, i8 noundef signext %.0.i.i.i)
  %39 = call noundef nonnull align 8 dereferenceable(8) ptr @_ZNSo5flushEv(ptr noundef nonnull align 8 dereferenceable(8) %38)
  ret void

40:                                               ; preds = %_ZN8V3PreLex13currentBufferEv.exit
  %41 = landingpad { ptr, i32 }
          cleanup
  %42 = load ptr, ptr %2, align 8, !tbaa !114
  %43 = getelementptr inbounds nuw i8, ptr %2, i64 16
  %44 = icmp eq ptr %42, %43
  br i1 %44, label %_ZNKSt7__cxx1112basic_stringIcSt11char_traitsIcESaIcEE11_M_is_localEv.exit.thread.i.i3, label %_ZNKSt7__cxx1112basic_stringIcSt11char_traitsIcESaIcEE11_M_is_localEv.exit.i.i2

_ZNKSt7__cxx1112basic_stringIcSt11char_traitsIcESaIcEE11_M_is_localEv.exit.thread.i.i3: ; preds = %40
  %45 = load i64, ptr %11, align 8, !tbaa !115
  %46 = icmp ult i64 %45, 16
  call void @llvm.assume(i1 %46)
  br label %_ZNSt7__cxx1112basic_stringIcSt11char_traitsIcESaIcEED2Ev.exit4

_ZNKSt7__cxx1112basic_stringIcSt11char_traitsIcESaIcEE11_M_is_localEv.exit.i.i2: ; preds = %40
  %47 = load i64, ptr %43, align 8, !tbaa !27
  %48 = add i64 %47, 1
  call void @_ZdlPvm(ptr noundef %42, i64 noundef %48) #45
  br label %_ZNSt7__cxx1112basic_stringIcSt11char_traitsIcESaIcEED2Ev.exit4

_ZNSt7__cxx1112basic_stringIcSt11char_traitsIcESaIcEED2Ev.exit4: ; preds = %_ZNKSt7__cxx1112basic_stringIcSt11char_traitsIcESaIcEE11_M_is_localEv.exit.thread.i.i3, %_ZNKSt7__cxx1112basic_stringIcSt11char_traitsIcESaIcEE11_M_is_localEv.exit.i.i2
  call void @llvm.lifetime.end.p0(i64 32, ptr nonnull %2) #44
  resume { ptr, i32 } %41
}